target datalayout = "e-m:e-p270:32:32-p271:32:32-p272:64:64-i64:64-i128:128-f80:128-n8:16:32:64-S128"
target triple = "x86_64-pc-linux-gnu"

%"struct.llvm::object::WasmObjectFile::ReadContext" = type { ptr, ptr, ptr }

@.str.161 = private unnamed_addr constant [36 x i8] c"malformed sleb128, extends past end\00", align 1
@.str.162 = private unnamed_addr constant [26 x i8] c"sleb128 too big for int64\00", align 1
@.str.163 = private unnamed_addr constant [30 x i8] c"LEB is outside Varuint1 range\00", align 1

; Function Attrs: mustprogress nounwind uwtable
define linkonce_odr hidden noundef i64 @_ZN4llvm13decodeSLEB128EPKhPjS1_PPKc(ptr noundef %0, ptr noundef %1, ptr noundef %2, ptr noundef %3) #0 comdat {
  %5 = alloca i64, align 8
  %6 = alloca ptr, align 8
  %7 = alloca ptr, align 8
  %8 = alloca ptr, align 8
  %9 = alloca ptr, align 8
  %10 = alloca ptr, align 8
  %11 = alloca i64, align 8
  %12 = alloca i32, align 4
  %13 = alloca i8, align 1
  %14 = alloca i64, align 8
  store ptr %0, ptr %6, align 8
  store ptr %1, ptr %7, align 8
  store ptr %2, ptr %8, align 8
  store ptr %3, ptr %9, align 8
  %15 = load ptr, ptr %6, align 8
  store ptr %15, ptr %10, align 8
  store i64 0, ptr %11, align 8
  store i32 0, ptr %12, align 4
  br label %16

16:                                               ; preds = %93, %4
  %17 = load ptr, ptr %6, align 8
  %18 = load ptr, ptr %8, align 8
  %19 = icmp eq ptr %17, %18
  br i1 %19, label %20, label %37

20:                                               ; preds = %16
  %21 = load ptr, ptr %9, align 8
  %22 = icmp ne ptr %21, null
  br i1 %22, label %23, label %25

23:                                               ; preds = %20
  %24 = load ptr, ptr %9, align 8
  store ptr @.str.161, ptr %24, align 8
  br label %25

25:                                               ; preds = %23, %20
  %26 = load ptr, ptr %7, align 8
  %27 = icmp ne ptr %26, null
  br i1 %27, label %28, label %36

28:                                               ; preds = %25
  %29 = load ptr, ptr %6, align 8
  %30 = load ptr, ptr %10, align 8
  %31 = ptrtoint ptr %29 to i64
  %32 = ptrtoint ptr %30 to i64
  %33 = sub i64 %31, %32
  %34 = trunc i64 %33 to i32
  %35 = load ptr, ptr %7, align 8
  store i32 %34, ptr %35, align 4
  br label %36

36:                                               ; preds = %28, %25
  store i64 0, ptr %5, align 8
  br label %124

37:                                               ; preds = %16
  %38 = load ptr, ptr %6, align 8
  %39 = load i8, ptr %38, align 1
  store i8 %39, ptr %13, align 1
  %40 = load i8, ptr %13, align 1
  %41 = zext i8 %40 to i32
  %42 = and i32 %41, 127
  %43 = sext i32 %42 to i64
  store i64 %43, ptr %14, align 8
  %44 = load i32, ptr %12, align 4
  %45 = icmp uge i32 %44, 63
  br i1 %45, label %46, label %82

46:                                               ; preds = %37
  %47 = load i32, ptr %12, align 4
  %48 = icmp eq i32 %47, 63
  br i1 %48, label %49, label %55

49:                                               ; preds = %46
  %50 = load i64, ptr %14, align 8
  %51 = icmp ne i64 %50, 0
  br i1 %51, label %52, label %55

52:                                               ; preds = %49
  %53 = load i64, ptr %14, align 8
  %54 = icmp ne i64 %53, 127
  br i1 %54, label %65, label %55

55:                                               ; preds = %52, %49, %46
  %56 = load i32, ptr %12, align 4
  %57 = icmp ugt i32 %56, 63
  br i1 %57, label %58, label %82

58:                                               ; preds = %55
  %59 = load i64, ptr %14, align 8
  %60 = load i64, ptr %11, align 8
  %61 = icmp slt i64 %60, 0
  %62 = select i1 %61, i32 127, i32 0
  %63 = sext i32 %62 to i64
  %64 = icmp ne i64 %59, %63
  br i1 %64, label %65, label %82

65:                                               ; preds = %58, %52
  %66 = load ptr, ptr %9, align 8
  %67 = icmp ne ptr %66, null
  br i1 %67, label %68, label %70

68:                                               ; preds = %65
  %69 = load ptr, ptr %9, align 8
  store ptr @.str.162, ptr %69, align 8
  br label %70

70:                                               ; preds = %68, %65
  %71 = load ptr, ptr %7, align 8
  %72 = icmp ne ptr %71, null
  br i1 %72, label %73, label %81

73:                                               ; preds = %70
  %74 = load ptr, ptr %6, align 8
  %75 = load ptr, ptr %10, align 8
  %76 = ptrtoint ptr %74 to i64
  %77 = ptrtoint ptr %75 to i64
  %78 = sub i64 %76, %77
  %79 = trunc i64 %78 to i32
  %80 = load ptr, ptr %7, align 8
  store i32 %79, ptr %80, align 4
  br label %81

81:                                               ; preds = %73, %70
  store i64 0, ptr %5, align 8
  br label %124

82:                                               ; preds = %58, %55, %37
  %83 = load i64, ptr %14, align 8
  %84 = load i32, ptr %12, align 4
  %85 = zext i32 %84 to i64
  %86 = shl i64 %83, %85
  %87 = load i64, ptr %11, align 8
  %88 = or i64 %87, %86
  store i64 %88, ptr %11, align 8
  %89 = load i32, ptr %12, align 4
  %90 = add i32 %89, 7
  store i32 %90, ptr %12, align 4
  %91 = load ptr, ptr %6, align 8
  %92 = getelementptr inbounds i8, ptr %91, i32 1
  store ptr %92, ptr %6, align 8
  br label %93

93:                                               ; preds = %82
  %94 = load i8, ptr %13, align 1
  %95 = zext i8 %94 to i32
  %96 = icmp sge i32 %95, 128
  br i1 %96, label %16, label %97, !llvm.loop !53

97:                                               ; preds = %93
  %98 = load i32, ptr %12, align 4
  %99 = icmp ult i32 %98, 64
  br i1 %99, label %100, label %111

100:                                              ; preds = %97
  %101 = load i8, ptr %13, align 1
  %102 = zext i8 %101 to i32
  %103 = and i32 %102, 64
  %104 = icmp ne i32 %103, 0
  br i1 %104, label %105, label %111

105:                                              ; preds = %100
  %106 = load i32, ptr %12, align 4
  %107 = zext i32 %106 to i64
  %108 = shl i64 -1, %107
  %109 = load i64, ptr %11, align 8
  %110 = or i64 %109, %108
  store i64 %110, ptr %11, align 8
  br label %111

111:                                              ; preds = %105, %100, %97
  %112 = load ptr, ptr %7, align 8
  %113 = icmp ne ptr %112, null
  br i1 %113, label %114, label %122

114:                                              ; preds = %111
  %115 = load ptr, ptr %6, align 8
  %116 = load ptr, ptr %10, align 8
  %117 = ptrtoint ptr %115 to i64
  %118 = ptrtoint ptr %116 to i64
  %119 = sub i64 %117, %118
  %120 = trunc i64 %119 to i32
  %121 = load ptr, ptr %7, align 8
  store i32 %120, ptr %121, align 4
  br label %122

122:                                              ; preds = %114, %111
  %123 = load i64, ptr %11, align 8
  store i64 %123, ptr %5, align 8
  br label %124

124:                                              ; preds = %122, %81, %36
  %125 = load i64, ptr %5, align 8
  ret i64 %125
}

; Function Attrs: mustprogress nounwind uwtable
define internal noundef i64 @_ZL10readLEB128RN4llvm6object14WasmObjectFile11ReadContextE(ptr noundef nonnull align 8 dereferenceable(24) %0) #0 {
  %2 = alloca ptr, align 8
  %3 = alloca i32, align 4
  %4 = alloca ptr, align 8
  %5 = alloca i64, align 8
  store ptr %0, ptr %2, align 8
  store ptr null, ptr %4, align 8
  %6 = load ptr, ptr %2, align 8
  %7 = getelementptr inbounds nuw %"struct.llvm::object::WasmObjectFile::ReadContext", ptr %6, i32 0, i32 1
  %8 = load ptr, ptr %7, align 8
  %9 = load ptr, ptr %2, align 8
  %10 = getelementptr inbounds nuw %"struct.llvm::object::WasmObjectFile::ReadContext", ptr %9, i32 0, i32 2
  %11 = load ptr, ptr %10, align 8
  %12 = call noundef i64 @_ZN4llvm13decodeSLEB128EPKhPjS1_PPKc(ptr noundef %8, ptr noundef %3, ptr noundef %11, ptr noundef %4)
  store i64 %12, ptr %5, align 8
  %13 = load ptr, ptr %4, align 8
  %14 = icmp ne ptr %13, null
  br i1 %14, label %15, label %17

15:                                               ; preds = %1
  %16 = load ptr, ptr %4, align 8
  call void @_ZN4llvm18report_fatal_errorEPKcb(ptr noundef %16, i1 noundef zeroext true) #14
  unreachable

17:                                               ; preds = %1
  %18 = load i32, ptr %3, align 4
  %19 = load ptr, ptr %2, align 8
  %20 = getelementptr inbounds nuw %"struct.llvm::object::WasmObjectFile::ReadContext", ptr %19, i32 0, i32 1
  %21 = load ptr, ptr %20, align 8
  %22 = zext i32 %18 to i64
  %23 = getelementptr inbounds i8, ptr %21, i64 %22
  store ptr %23, ptr %20, align 8
  %24 = load i64, ptr %5, align 8
  ret i64 %24
}

; Function Attrs: mustprogress nounwind uwtable
define internal noundef zeroext i8 @_ZL12readVaruint1RN4llvm6object14WasmObjectFile11ReadContextE(ptr noundef nonnull align 8 dereferenceable(24) %0) #0 {
  %2 = alloca ptr, align 8
  %3 = alloca i64, align 8
  store ptr %0, ptr %2, align 8
  %4 = load ptr, ptr %2, align 8
  %5 = call noundef i64 @_ZL10readLEB128RN4llvm6object14WasmObjectFile11ReadContextE(ptr noundef nonnull align 8 dereferenceable(24) %4)
  store i64 %5, ptr %3, align 8
  %6 = load i64, ptr %3, align 8
  %7 = icmp sgt i64 %6, 1
  br i1 %7, label %11, label %8

8:                                                ; preds = %1
  %9 = load i64, ptr %3, align 8
  %10 = icmp slt i64 %9, 0
  br i1 %10, label %11, label %12

11:                                               ; preds = %8, %1
  call void @_ZN4llvm18report_fatal_errorEPKcb(ptr noundef @.str.163, i1 noundef zeroext true) #14
  unreachable

12:                                               ; preds = %8
  %13 = load i64, ptr %3, align 8
  %14 = trunc i64 %13 to i8
  ret i8 %14
}