; Function Attrs: mustprogress nounwind uwtable
define internal fastcc noundef zeroext range(i8 0, 2) i8 @_ZL12readVaruint1RN4llvm6object14WasmObjectFile11ReadContextE(ptr nocapture noundef nonnull align 8 dereferenceable(24) %0) unnamed_addr #0 {
  %2 = getelementptr inbounds nuw i8, ptr %0, i64 8
  %3 = load ptr, ptr %2, align 8
  %4 = getelementptr inbounds nuw i8, ptr %0, i64 16
  %5 = load ptr, ptr %4, align 8
  br label %6

6:                                                ; preds = %17, %1
  %.044.i.i = phi i64 [ 0, %1 ], [ %20, %17 ]
  %.043.i.i = phi i32 [ 0, %1 ], [ %21, %17 ]
  %.042.i.i = phi ptr [ %3, %1 ], [ %22, %17 ]
  %7 = icmp eq ptr %.042.i.i, %5
  br i1 %7, label %24, label %8

8:                                                ; preds = %6
  %9 = load i8, ptr %.042.i.i, align 1
  %10 = and i8 %9, 127
  %11 = zext nneg i8 %10 to i64
  %12 = icmp ugt i32 %.043.i.i, 62
  br i1 %12, label %13, label %17

13:                                               ; preds = %8
  %14 = icmp eq i32 %.043.i.i, 63
  br i1 %14, label %switch.early.test.i.i, label %.critedge.i.i

switch.early.test.i.i:                            ; preds = %13
  switch i8 %9, label %24 [
    i8 -1, label %17
    i8 -128, label %17
    i8 127, label %17
    i8 0, label %17
  ]

.critedge.i.i:                                    ; preds = %13
  %15 = icmp slt i64 %.044.i.i, 0
  %16 = select i1 %15, i64 127, i64 0
  %.not51.i.i = icmp eq i64 %16, %11
  br i1 %.not51.i.i, label %17, label %24

17:                                               ; preds = %.critedge.i.i, %switch.early.test.i.i, %switch.early.test.i.i, %switch.early.test.i.i, %switch.early.test.i.i, %8
  %18 = zext nneg i32 %.043.i.i to i64
  %19 = shl i64 %11, %18
  %20 = or i64 %19, %.044.i.i
  %21 = add i32 %.043.i.i, 7
  %22 = getelementptr inbounds i8, ptr %.042.i.i, i64 1
  %23 = icmp slt i8 %9, 0
  br i1 %23, label %6, label %_ZL10readLEB128RN4llvm6object14WasmObjectFile11ReadContextE.exit, !llvm.loop !102

24:                                               ; preds = %.critedge.i.i, %switch.early.test.i.i, %6
  %.0.ph.i = phi ptr [ @.str.162, %switch.early.test.i.i ], [ @.str.162, %.critedge.i.i ], [ @.str.161, %6 ]
  tail call void @_ZN4llvm18report_fatal_errorEPKcb(ptr noundef nonnull %.0.ph.i, i1 noundef zeroext true) #27
  unreachable

_ZL10readLEB128RN4llvm6object14WasmObjectFile11ReadContextE.exit: ; preds = %17
  %25 = ptrtoint ptr %3 to i64
  %26 = icmp ugt i32 %21, 63
  %.not52.i.i = icmp ult i8 %9, 64
  %or.cond.i.i = select i1 %26, i1 true, i1 %.not52.i.i
  %27 = zext nneg i32 %21 to i64
  %28 = shl nsw i64 -1, %27
  %29 = select i1 %or.cond.i.i, i64 0, i64 %28
  %.1.i.i = or i64 %20, %29
  %.pn.i.i = ptrtoint ptr %22 to i64
  %.sink76.i.i = sub i64 %.pn.i.i, %25
  %30 = and i64 %.sink76.i.i, 4294967295
  %31 = getelementptr inbounds i8, ptr %3, i64 %30
  store ptr %31, ptr %2, align 8
  %or.cond = icmp ugt i64 %.1.i.i, 1
  br i1 %or.cond, label %32, label %33

32:                                               ; preds = %_ZL10readLEB128RN4llvm6object14WasmObjectFile11ReadContextE.exit
  tail call void @_ZN4llvm18report_fatal_errorEPKcb(ptr noundef nonnull @.str.163, i1 noundef zeroext true) #27
  unreachable

33:                                               ; preds = %_ZL10readLEB128RN4llvm6object14WasmObjectFile11ReadContextE.exit
  %34 = trunc nuw nsw i64 %.1.i.i to i8
  ret i8 %34
}